; Function Attrs: mustprogress nofree nounwind willreturn memory(write, argmem: readwrite) uwtable
define noundef double @_ZNK8QuantLib16G2ForwardProcess13yForwardDriftEdd(ptr nocapture noundef nonnull readonly align 8 dereferenceable(224) %this, double noundef %t, double noundef %T) local_unnamed_addr #15 align 2 {
entry:
  %a_ = getelementptr inbounds nuw i8, ptr %this, i64 152
  %0 = load double, ptr %a_, align 8, !tbaa !85
  %fneg = fneg double %0
  %sub = fsub double %T, %t
  %mul = fmul double %sub, %fneg
  %call = tail call double @exp(double noundef %mul) #27, !tbaa !70
  %b_ = getelementptr inbounds nuw i8, ptr %this, i64 168
  %1 = load double, ptr %b_, align 8, !tbaa !89
  %fneg2 = fneg double %1
  %mul4 = fmul double %sub, %fneg2
  %call5 = tail call double @exp(double noundef %mul4) #27, !tbaa !70
  %eta_ = getelementptr inbounds nuw i8, ptr %this, i64 176
  %2 = load double, ptr %eta_, align 8, !tbaa !90
  %3 = fneg double %2
  %4 = fmul double %2, %3
  %fneg9 = fdiv double %4, %1
  %sub10 = fsub double 1.000000e+00, %call5
  %rho_ = getelementptr inbounds nuw i8, ptr %this, i64 184
  %5 = load double, ptr %rho_, align 8, !tbaa !91
  %sigma_ = getelementptr inbounds nuw i8, ptr %this, i64 160
  %6 = load double, ptr %sigma_, align 8, !tbaa !88
  %mul12 = fmul double %5, %6
  %mul14 = fmul double %2, %mul12
  %div16 = fdiv double %mul14, %0
  %sub17 = fsub double 1.000000e+00, %call
  %7 = fneg double %sub17
  %neg = fmul double %div16, %7
  %8 = tail call double @llvm.fmuladd.f64(double %fneg9, double %sub10, double %neg)
  ret double %8
}